target datalayout = "e-m:e-p270:32:32-p271:32:32-p272:64:64-i64:64-i128:128-f80:128-n8:16:32:64-S128"
target triple = "x86_64-pc-linux-gnu"

%struct.BEValue = type { i8, i32, ptr, ptr, ptr }
%struct.Expr_ = type { ptr, %union.SourceSpan, i16, %union.anon.29 }
%union.SourceSpan = type { i64 }
%union.anon.29 = type { %struct.ExprAnySwitch }
%struct.ExprAnySwitch = type { i8, %union.anon.31 }
%union.anon.31 = type { %struct.anon.32 }
%struct.anon.32 = type { ptr, %union.SourceSpan, ptr }
%struct.ExprCall = type { %union.anon.33, i32, i16, ptr, %union.anon.34 }
%union.anon.33 = type { i32 }
%union.anon.34 = type { ptr }
%struct.GenContext_ = type { i8, ptr, ptr, ptr, ptr, ptr, ptr, ptr, ptr, ptr, ptr, ptr, ptr, ptr, ptr, ptr, ptr, ptr, ptr, ptr, ptr, ptr, ptr, ptr, ptr, ptr, ptr, ptr, ptr, ptr, ptr, ptr, ptr, %struct.anon.85, i32, i32, %struct.DebugContext, ptr, ptr, ptr, %struct.BEValue, i8, %union.SourceSpan, ptr, ptr, ptr, ptr }
%struct.anon.85 = type { ptr, ptr, ptr }
%struct.DebugContext = type { i16, ptr, ptr, %struct.DebugFile_, ptr, ptr, ptr, ptr }
%struct.DebugFile_ = type { i16, ptr }
%struct.Type_ = type { i32, ptr, ptr, ptr, %union.anon.101, ptr, ptr, %union.anon.103 }
%union.anon.101 = type { ptr }
%union.anon.103 = type { %struct.TypeFunction }
%struct.TypeFunction = type { ptr, ptr, ptr }

@type_usz = external global ptr, align 8
@.str.5 = private unnamed_addr constant [1 x i8] zeroinitializer, align 1
@type_bool = external global ptr, align 8

; Function Attrs: nounwind uwtable
define internal void @llvm_emit_overflow_builtin(ptr noundef %0, ptr noundef %1, ptr noundef %2, i32 noundef %3, i32 noundef %4) #0 {
  %6 = alloca ptr, align 8
  %7 = alloca i32, align 4
  %8 = alloca ptr, align 8
  %9 = alloca i32, align 4
  %10 = alloca ptr, align 8
  %11 = alloca ptr, align 8
  %12 = alloca ptr, align 8
  %13 = alloca i1, align 1
  %14 = alloca ptr, align 8
  %15 = alloca i32, align 4
  %16 = alloca ptr, align 8
  %17 = alloca ptr, align 8
  %18 = alloca i64, align 8
  %19 = alloca ptr, align 8
  %20 = alloca ptr, align 8
  %21 = alloca ptr, align 8
  %22 = alloca i32, align 4
  %23 = alloca ptr, align 8
  %24 = alloca ptr, align 8
  %25 = alloca i64, align 8
  %26 = alloca ptr, align 8
  %27 = alloca ptr, align 8
  %28 = alloca ptr, align 8
  %29 = alloca i32, align 4
  %30 = alloca ptr, align 8
  %31 = alloca ptr, align 8
  %32 = alloca ptr, align 8
  %33 = alloca i32, align 4
  %34 = alloca %struct.BEValue, align 8
  %35 = alloca i32, align 4
  %36 = alloca ptr, align 8
  %37 = alloca ptr, align 8
  %38 = alloca ptr, align 8
  %39 = alloca i32, align 4
  %40 = alloca i32, align 4
  %41 = alloca ptr, align 8
  %42 = alloca [2 x ptr], align 16
  %43 = alloca %struct.BEValue, align 8
  %44 = alloca ptr, align 8
  %45 = alloca [1 x ptr], align 8
  %46 = alloca i32, align 4
  %47 = alloca ptr, align 8
  %48 = alloca ptr, align 8
  %49 = alloca ptr, align 8
  store ptr %0, ptr %36, align 8
  store ptr %1, ptr %37, align 8
  store ptr %2, ptr %38, align 8
  store i32 %3, ptr %39, align 4
  store i32 %4, ptr %40, align 4
  %50 = load ptr, ptr %38, align 8
  %51 = getelementptr inbounds %struct.Expr_, ptr %50, i32 0, i32 3
  %52 = getelementptr inbounds %struct.ExprCall, ptr %51, i32 0, i32 3
  %53 = load ptr, ptr %52, align 8
  store ptr %53, ptr %41, align 8
  %54 = load ptr, ptr %36, align 8
  %55 = load ptr, ptr %41, align 8
  %56 = getelementptr inbounds [2 x ptr], ptr %42, i64 0, i64 0
  store ptr %54, ptr %30, align 8
  store ptr %55, ptr %31, align 8
  store ptr %56, ptr %32, align 8
  store i32 2, ptr %33, align 4
  store i32 0, ptr %35, align 4
  br label %57

57:                                               ; preds = %61, %5
  %58 = load i32, ptr %35, align 4
  %59 = load i32, ptr %33, align 4
  %60 = icmp ult i32 %58, %59
  br i1 %60, label %61, label %77

61:                                               ; preds = %57
  %62 = load ptr, ptr %30, align 8
  %63 = load ptr, ptr %31, align 8
  %64 = load i32, ptr %35, align 4
  %65 = zext i32 %64 to i64
  %66 = getelementptr inbounds ptr, ptr %63, i64 %65
  %67 = load ptr, ptr %66, align 8
  call void @llvm_emit_expr(ptr noundef %62, ptr noundef %34, ptr noundef %67) #6
  %68 = load ptr, ptr %30, align 8
  call void @llvm_value_rvalue(ptr noundef %68, ptr noundef %34) #6
  %69 = getelementptr inbounds %struct.BEValue, ptr %34, i32 0, i32 3
  %70 = load ptr, ptr %69, align 8
  %71 = load ptr, ptr %32, align 8
  %72 = load i32, ptr %35, align 4
  %73 = zext i32 %72 to i64
  %74 = getelementptr inbounds ptr, ptr %71, i64 %73
  store ptr %70, ptr %74, align 8
  %75 = load i32, ptr %35, align 4
  %76 = add i32 %75, 1
  store i32 %76, ptr %35, align 4
  br label %57, !llvm.loop !30

77:                                               ; preds = %57
  %78 = load ptr, ptr %41, align 8
  %79 = getelementptr inbounds ptr, ptr %78, i64 2
  %80 = load ptr, ptr %79, align 8
  store ptr %80, ptr %44, align 8
  %81 = load ptr, ptr %36, align 8
  %82 = load ptr, ptr %44, align 8
  call void @llvm_emit_expr(ptr noundef %81, ptr noundef %43, ptr noundef %82)
  %83 = load ptr, ptr %36, align 8
  call void @llvm_value_rvalue(ptr noundef %83, ptr noundef %43)
  %84 = getelementptr inbounds %struct.BEValue, ptr %43, i32 0, i32 3
  %85 = load ptr, ptr %84, align 8
  %86 = getelementptr inbounds %struct.BEValue, ptr %43, i32 0, i32 2
  %87 = load ptr, ptr %86, align 8
  %88 = getelementptr inbounds %struct.Type_, ptr %87, i32 0, i32 7
  %89 = load ptr, ptr %88, align 8
  %90 = getelementptr inbounds %struct.BEValue, ptr %43, i32 0, i32 2
  %91 = load ptr, ptr %90, align 8
  %92 = getelementptr inbounds %struct.Type_, ptr %91, i32 0, i32 7
  %93 = load ptr, ptr %92, align 8
  %94 = call i32 @type_abi_alignment(ptr noundef %93)
  call void @llvm_value_set_address(ptr noundef %43, ptr noundef %85, ptr noundef %89, i32 noundef %94)
  %95 = getelementptr inbounds [1 x ptr], ptr %45, i64 0, i64 0
  %96 = getelementptr inbounds [2 x ptr], ptr %42, i64 0, i64 0
  %97 = load ptr, ptr %96, align 16
  %98 = call ptr @LLVMTypeOf(ptr noundef %97)
  store ptr %98, ptr %95, align 8
  %99 = load ptr, ptr %41, align 8
  %100 = getelementptr inbounds ptr, ptr %99, i64 0
  %101 = load ptr, ptr %100, align 8
  %102 = getelementptr inbounds %struct.Expr_, ptr %101, i32 0, i32 0
  %103 = load ptr, ptr %102, align 8
  %104 = call ptr @type_lowering(ptr noundef %103)
  store ptr %104, ptr %14, align 8
  %105 = load ptr, ptr %14, align 8
  %106 = load i32, ptr %105, align 8
  store i32 %106, ptr %15, align 4
  %107 = load i32, ptr %15, align 4
  %108 = icmp uge i32 %107, 3
  br i1 %108, label %109, label %113

109:                                              ; preds = %77
  %110 = load i32, ptr %15, align 4
  %111 = icmp ult i32 %110, 8
  br i1 %111, label %112, label %113

112:                                              ; preds = %109
  store i1 true, ptr %13, align 1
  br label %129

113:                                              ; preds = %109, %77
  %114 = load i32, ptr %15, align 4
  %115 = icmp ne i32 %114, 37
  br i1 %115, label %116, label %117

116:                                              ; preds = %113
  store i1 false, ptr %13, align 1
  br label %129

117:                                              ; preds = %113
  %118 = load ptr, ptr %14, align 8
  %119 = getelementptr inbounds %struct.Type_, ptr %118, i32 0, i32 7
  %120 = load ptr, ptr %119, align 8
  %121 = load i32, ptr %120, align 8
  store i32 %121, ptr %15, align 4
  %122 = load i32, ptr %15, align 4
  %123 = icmp uge i32 %122, 3
  br i1 %123, label %124, label %127

124:                                              ; preds = %117
  %125 = load i32, ptr %15, align 4
  %126 = icmp ult i32 %125, 8
  br label %127

127:                                              ; preds = %124, %117
  %128 = phi i1 [ false, %117 ], [ %126, %124 ]
  store i1 %128, ptr %13, align 1
  br label %129

129:                                              ; preds = %127, %116, %112
  %130 = load i1, ptr %13, align 1
  br i1 %130, label %131, label %133

131:                                              ; preds = %129
  %132 = load i32, ptr %39, align 4
  br label %135

133:                                              ; preds = %129
  %134 = load i32, ptr %40, align 4
  br label %135

135:                                              ; preds = %133, %131
  %136 = phi i32 [ %132, %131 ], [ %134, %133 ]
  store i32 %136, ptr %46, align 4
  %137 = load ptr, ptr %36, align 8
  %138 = load i32, ptr %46, align 4
  %139 = getelementptr inbounds [1 x ptr], ptr %45, i64 0, i64 0
  %140 = getelementptr inbounds [2 x ptr], ptr %42, i64 0, i64 0
  %141 = call ptr @llvm_emit_call_intrinsic(ptr noundef %137, i32 noundef %138, ptr noundef %139, i32 noundef 1, ptr noundef %140, i32 noundef 2)
  store ptr %141, ptr %47, align 8
  %142 = load ptr, ptr %36, align 8
  %143 = load ptr, ptr %47, align 8
  store ptr %142, ptr %20, align 8
  store ptr %143, ptr %21, align 8
  store i32 1, ptr %22, align 4
  %144 = load ptr, ptr %21, align 8
  %145 = call ptr @LLVMTypeOf(ptr noundef %144) #6
  %146 = call i32 @LLVMGetTypeKind(ptr noundef %145) #6
  %147 = icmp eq i32 %146, 13
  br i1 %147, label %148, label %184

148:                                              ; preds = %135
  %149 = load ptr, ptr %20, align 8
  %150 = getelementptr inbounds %struct.GenContext_, ptr %149, i32 0, i32 8
  %151 = load ptr, ptr %150, align 8
  %152 = load ptr, ptr %21, align 8
  %153 = load ptr, ptr %20, align 8
  %154 = load ptr, ptr @type_usz, align 8
  %155 = load i32, ptr %22, align 4
  %156 = zext i32 %155 to i64
  store ptr %153, ptr %16, align 8
  store ptr %154, ptr %17, align 8
  store i64 %156, ptr %18, align 8
  %157 = load ptr, ptr %17, align 8
  %158 = call ptr @type_lowering(ptr noundef %157)
  store ptr %158, ptr %17, align 8
  %159 = load ptr, ptr %16, align 8
  %160 = load ptr, ptr %17, align 8
  %161 = call ptr @llvm_get_type(ptr noundef %159, ptr noundef %160) #6
  %162 = load i64, ptr %18, align 8
  %163 = load ptr, ptr %17, align 8
  store ptr %163, ptr %8, align 8
  %164 = load ptr, ptr %8, align 8
  %165 = load i32, ptr %164, align 8
  store i32 %165, ptr %9, align 4
  %166 = load i32, ptr %9, align 4
  %167 = icmp eq i32 %166, 31
  br i1 %167, label %168, label %173

168:                                              ; preds = %148
  %169 = load ptr, ptr %8, align 8
  %170 = getelementptr inbounds %struct.Type_, ptr %169, i32 0, i32 1
  %171 = load ptr, ptr %170, align 8
  %172 = load i32, ptr %171, align 8
  store i32 %172, ptr %9, align 4
  br label %173

173:                                              ; preds = %168, %148
  %174 = load i32, ptr %9, align 4
  %175 = icmp uge i32 %174, 3
  br i1 %175, label %176, label %179

176:                                              ; preds = %173
  %177 = load i32, ptr %9, align 4
  %178 = icmp ule i32 %177, 7
  br label %179

179:                                              ; preds = %176, %173
  %180 = phi i1 [ false, %173 ], [ %178, %176 ]
  %181 = zext i1 %180 to i32
  %182 = call ptr @LLVMConstInt(ptr noundef %161, i64 noundef %162, i32 noundef %181) #6
  %183 = call ptr @LLVMBuildExtractElement(ptr noundef %151, ptr noundef %152, ptr noundef %182, ptr noundef @.str.5) #6
  store ptr %183, ptr %19, align 8
  br label %191

184:                                              ; preds = %135
  %185 = load ptr, ptr %20, align 8
  %186 = getelementptr inbounds %struct.GenContext_, ptr %185, i32 0, i32 8
  %187 = load ptr, ptr %186, align 8
  %188 = load ptr, ptr %21, align 8
  %189 = load i32, ptr %22, align 4
  %190 = call ptr @LLVMBuildExtractValue(ptr noundef %187, ptr noundef %188, i32 noundef %189, ptr noundef @.str.5) #6
  store ptr %190, ptr %19, align 8
  br label %191

191:                                              ; preds = %184, %179
  %192 = load ptr, ptr %19, align 8
  store ptr %192, ptr %48, align 8
  %193 = load ptr, ptr %36, align 8
  %194 = load ptr, ptr %47, align 8
  store ptr %193, ptr %27, align 8
  store ptr %194, ptr %28, align 8
  store i32 0, ptr %29, align 4
  %195 = load ptr, ptr %28, align 8
  %196 = call ptr @LLVMTypeOf(ptr noundef %195) #6
  %197 = call i32 @LLVMGetTypeKind(ptr noundef %196) #6
  %198 = icmp eq i32 %197, 13
  br i1 %198, label %199, label %235

199:                                              ; preds = %191
  %200 = load ptr, ptr %27, align 8
  %201 = getelementptr inbounds %struct.GenContext_, ptr %200, i32 0, i32 8
  %202 = load ptr, ptr %201, align 8
  %203 = load ptr, ptr %28, align 8
  %204 = load ptr, ptr %27, align 8
  %205 = load ptr, ptr @type_usz, align 8
  %206 = load i32, ptr %29, align 4
  %207 = zext i32 %206 to i64
  store ptr %204, ptr %23, align 8
  store ptr %205, ptr %24, align 8
  store i64 %207, ptr %25, align 8
  %208 = load ptr, ptr %24, align 8
  %209 = call ptr @type_lowering(ptr noundef %208)
  store ptr %209, ptr %24, align 8
  %210 = load ptr, ptr %23, align 8
  %211 = load ptr, ptr %24, align 8
  %212 = call ptr @llvm_get_type(ptr noundef %210, ptr noundef %211) #6
  %213 = load i64, ptr %25, align 8
  %214 = load ptr, ptr %24, align 8
  store ptr %214, ptr %6, align 8
  %215 = load ptr, ptr %6, align 8
  %216 = load i32, ptr %215, align 8
  store i32 %216, ptr %7, align 4
  %217 = load i32, ptr %7, align 4
  %218 = icmp eq i32 %217, 31
  br i1 %218, label %219, label %224

219:                                              ; preds = %199
  %220 = load ptr, ptr %6, align 8
  %221 = getelementptr inbounds %struct.Type_, ptr %220, i32 0, i32 1
  %222 = load ptr, ptr %221, align 8
  %223 = load i32, ptr %222, align 8
  store i32 %223, ptr %7, align 4
  br label %224

224:                                              ; preds = %219, %199
  %225 = load i32, ptr %7, align 4
  %226 = icmp uge i32 %225, 3
  br i1 %226, label %227, label %230

227:                                              ; preds = %224
  %228 = load i32, ptr %7, align 4
  %229 = icmp ule i32 %228, 7
  br label %230

230:                                              ; preds = %227, %224
  %231 = phi i1 [ false, %224 ], [ %229, %227 ]
  %232 = zext i1 %231 to i32
  %233 = call ptr @LLVMConstInt(ptr noundef %212, i64 noundef %213, i32 noundef %232) #6
  %234 = call ptr @LLVMBuildExtractElement(ptr noundef %202, ptr noundef %203, ptr noundef %233, ptr noundef @.str.5) #6
  store ptr %234, ptr %26, align 8
  br label %242

235:                                              ; preds = %191
  %236 = load ptr, ptr %27, align 8
  %237 = getelementptr inbounds %struct.GenContext_, ptr %236, i32 0, i32 8
  %238 = load ptr, ptr %237, align 8
  %239 = load ptr, ptr %28, align 8
  %240 = load i32, ptr %29, align 4
  %241 = call ptr @LLVMBuildExtractValue(ptr noundef %238, ptr noundef %239, i32 noundef %240, ptr noundef @.str.5) #6
  store ptr %241, ptr %26, align 8
  br label %242

242:                                              ; preds = %235, %230
  %243 = load ptr, ptr %26, align 8
  store ptr %243, ptr %49, align 8
  %244 = load ptr, ptr %36, align 8
  %245 = load ptr, ptr %49, align 8
  store ptr %244, ptr %10, align 8
  store ptr %43, ptr %11, align 8
  store ptr %245, ptr %12, align 8
  %246 = load ptr, ptr %10, align 8
  %247 = load ptr, ptr %11, align 8
  %248 = getelementptr inbounds %struct.BEValue, ptr %247, i32 0, i32 3
  %249 = load ptr, ptr %248, align 8
  %250 = load ptr, ptr %12, align 8
  %251 = load ptr, ptr %11, align 8
  %252 = getelementptr inbounds %struct.BEValue, ptr %251, i32 0, i32 1
  %253 = load i32, ptr %252, align 4
  %254 = call ptr @llvm_store_to_ptr_raw_aligned(ptr noundef %246, ptr noundef %249, ptr noundef %250, i32 noundef %253) #6
  %255 = load ptr, ptr %37, align 8
  %256 = load ptr, ptr %48, align 8
  %257 = load ptr, ptr @type_bool, align 8
  call void @llvm_value_set(ptr noundef %255, ptr noundef %256, ptr noundef %257)
  ret void
}