; Function Attrs: nounwind uwtable
define internal fastcc void @llvm_emit_overflow_builtin(ptr noundef %0, ptr noundef %1, ptr nocapture readonly %.40.val, i32 noundef %2, i32 noundef %3) unnamed_addr #0 {
.critedge:
  %4 = alloca %struct.BEValue, align 8
  %5 = alloca [2 x ptr], align 16
  %6 = alloca %struct.BEValue, align 8
  %7 = alloca [1 x ptr], align 8
  %8 = getelementptr inbounds i8, ptr %4, i64 16
  %9 = load ptr, ptr %.40.val, align 8
  call void @llvm_emit_expr(ptr noundef %0, ptr noundef nonnull %4, ptr noundef %9) #8
  call void @llvm_value_rvalue(ptr noundef %0, ptr noundef nonnull %4) #8
  %10 = load ptr, ptr %8, align 8
  store ptr %10, ptr %5, align 16
  %11 = getelementptr inbounds i8, ptr %.40.val, i64 8
  %12 = load ptr, ptr %11, align 8
  call void @llvm_emit_expr(ptr noundef %0, ptr noundef nonnull %4, ptr noundef %12) #8
  call void @llvm_value_rvalue(ptr noundef %0, ptr noundef nonnull %4) #8
  %13 = load ptr, ptr %8, align 8
  %14 = getelementptr inbounds i8, ptr %5, i64 8
  store ptr %13, ptr %14, align 8
  %15 = getelementptr inbounds i8, ptr %.40.val, i64 16
  %16 = load ptr, ptr %15, align 8
  call void @llvm_emit_expr(ptr noundef %0, ptr noundef nonnull %6, ptr noundef %16) #8
  call void @llvm_value_rvalue(ptr noundef %0, ptr noundef nonnull %6) #8
  %17 = getelementptr inbounds i8, ptr %6, i64 16
  %18 = load ptr, ptr %17, align 8
  %19 = getelementptr inbounds i8, ptr %6, i64 8
  %20 = load ptr, ptr %19, align 8
  %21 = getelementptr inbounds i8, ptr %20, i64 56
  %22 = load ptr, ptr %21, align 8
  %23 = call i32 @type_abi_alignment(ptr noundef %22) #8
  call void @llvm_value_set_address(ptr noundef nonnull %6, ptr noundef %18, ptr noundef %22, i32 noundef %23) #8
  %24 = load ptr, ptr %5, align 16
  %25 = call ptr @LLVMTypeOf(ptr noundef %24) #8
  store ptr %25, ptr %7, align 8
  %26 = load ptr, ptr %.40.val, align 8
  %27 = load ptr, ptr %26, align 8
  %28 = call fastcc ptr @type_lowering(ptr noundef %27)
  %29 = load i32, ptr %28, align 8
  %30 = add i32 %29, -3
  %or.cond = icmp ult i32 %30, 5
  br i1 %or.cond, label %39, label %31

31:                                               ; preds = %.critedge
  %.not = icmp eq i32 %29, 37
  br i1 %.not, label %32, label %39

32:                                               ; preds = %31
  %33 = getelementptr inbounds i8, ptr %28, i64 56
  %34 = load ptr, ptr %33, align 8
  %35 = load i32, ptr %34, align 8
  %36 = add i32 %35, -3
  %37 = icmp ult i32 %36, 5
  %38 = select i1 %37, i32 %2, i32 %3
  br label %39

39:                                               ; preds = %31, %.critedge, %32
  %.080 = phi i32 [ %38, %32 ], [ %2, %.critedge ], [ %3, %31 ]
  %40 = call ptr @llvm_emit_call_intrinsic(ptr noundef %0, i32 noundef %.080, ptr noundef nonnull %7, i32 noundef 1, ptr noundef nonnull %5, i32 noundef 2) #8
  %41 = call ptr @LLVMTypeOf(ptr noundef %40) #8
  %42 = call i32 @LLVMGetTypeKind(ptr noundef %41) #8
  %43 = icmp eq i32 %42, 13
  %44 = getelementptr inbounds i8, ptr %0, i64 64
  %45 = load ptr, ptr %44, align 8
  br i1 %43, label %46, label %62

46:                                               ; preds = %39
  %47 = load ptr, ptr @type_usz, align 8
  %48 = call fastcc ptr @type_lowering(ptr noundef %47)
  %49 = call ptr @llvm_get_type(ptr noundef %0, ptr noundef %48) #8
  %50 = load i32, ptr %48, align 8
  %51 = icmp eq i32 %50, 31
  br i1 %51, label %52, label %56

52:                                               ; preds = %46
  %53 = getelementptr inbounds i8, ptr %48, i64 8
  %54 = load ptr, ptr %53, align 8
  %55 = load i32, ptr %54, align 8
  br label %56

56:                                               ; preds = %52, %46
  %.079 = phi i32 [ %55, %52 ], [ %50, %46 ]
  %57 = add i32 %.079, -3
  %58 = icmp ult i32 %57, 5
  %59 = zext i1 %58 to i32
  %60 = call ptr @LLVMConstInt(ptr noundef %49, i64 noundef 1, i32 noundef %59) #8
  %61 = call ptr @LLVMBuildExtractElement(ptr noundef %45, ptr noundef %40, ptr noundef %60, ptr noundef nonnull @.str.5) #8
  br label %64

62:                                               ; preds = %39
  %63 = call ptr @LLVMBuildExtractValue(ptr noundef %45, ptr noundef %40, i32 noundef 1, ptr noundef nonnull @.str.5) #8
  br label %64

64:                                               ; preds = %62, %56
  %.081 = phi ptr [ %61, %56 ], [ %63, %62 ]
  %65 = call ptr @LLVMTypeOf(ptr noundef %40) #8
  %66 = call i32 @LLVMGetTypeKind(ptr noundef %65) #8
  %67 = icmp eq i32 %66, 13
  %68 = getelementptr inbounds i8, ptr %0, i64 64
  %69 = load ptr, ptr %68, align 8
  br i1 %67, label %70, label %86

70:                                               ; preds = %64
  %71 = load ptr, ptr @type_usz, align 8
  %72 = call fastcc ptr @type_lowering(ptr noundef %71)
  %73 = call ptr @llvm_get_type(ptr noundef nonnull %0, ptr noundef %72) #8
  %74 = load i32, ptr %72, align 8
  %75 = icmp eq i32 %74, 31
  br i1 %75, label %76, label %80

76:                                               ; preds = %70
  %77 = getelementptr inbounds i8, ptr %72, i64 8
  %78 = load ptr, ptr %77, align 8
  %79 = load i32, ptr %78, align 8
  br label %80

80:                                               ; preds = %76, %70
  %.0 = phi i32 [ %79, %76 ], [ %74, %70 ]
  %81 = add i32 %.0, -3
  %82 = icmp ult i32 %81, 5
  %83 = zext i1 %82 to i32
  %84 = call ptr @LLVMConstInt(ptr noundef %73, i64 noundef 0, i32 noundef %83) #8
  %85 = call ptr @LLVMBuildExtractElement(ptr noundef %69, ptr noundef %40, ptr noundef %84, ptr noundef nonnull @.str.5) #8
  br label %88

86:                                               ; preds = %64
  %87 = call ptr @LLVMBuildExtractValue(ptr noundef %69, ptr noundef %40, i32 noundef 0, ptr noundef nonnull @.str.5) #8
  br label %88

88:                                               ; preds = %86, %80
  %.082 = phi ptr [ %85, %80 ], [ %87, %86 ]
  %89 = load ptr, ptr %17, align 8
  %90 = getelementptr inbounds i8, ptr %6, i64 4
  %91 = load i32, ptr %90, align 4
  %92 = call ptr @llvm_store_to_ptr_raw_aligned(ptr noundef nonnull %0, ptr noundef %89, ptr noundef %.082, i32 noundef %91) #8
  %93 = load ptr, ptr @type_bool, align 8
  call void @llvm_value_set(ptr noundef %1, ptr noundef %.081, ptr noundef %93) #8
  ret void
}